; Function Attrs: nofree noinline norecurse nosync nounwind memory(argmem: readwrite) uwtable
define internal fastcc void @avg_bilin_1d_h_c(ptr noundef captures(none) %0, i64 noundef %1, ptr noundef readonly captures(none) %2, i64 noundef %3, i32 noundef range(i32 4, 65) %4, i32 noundef %5, i32 noundef %6) unnamed_addr #9 {
  %wide.trip.count = zext nneg i32 %4 to i64
  br label %8

8:                                                ; preds = %29, %7
  %.036.i = phi i32 [ %5, %7 ], [ %32, %29 ]
  %.035.i = phi ptr [ %0, %7 ], [ %30, %29 ]
  %.034.i = phi ptr [ %2, %7 ], [ %31, %29 ]
  %9 = getelementptr i8, ptr %.034.i, i64 1
  br label %10

10:                                               ; preds = %8, %10
  %indvars.iv = phi i64 [ 0, %8 ], [ %indvars.iv.next, %10 ]
  %11 = getelementptr inbounds nuw i8, ptr %.035.i, i64 %indvars.iv
  %12 = load i8, ptr %11, align 1, !tbaa !8
  %13 = zext i8 %12 to i32
  %14 = getelementptr inbounds nuw i8, ptr %.034.i, i64 %indvars.iv
  %15 = load i8, ptr %14, align 1, !tbaa !8
  %16 = zext i8 %15 to i32
  %17 = getelementptr i8, ptr %9, i64 %indvars.iv
  %18 = load i8, ptr %17, align 1, !tbaa !8
  %19 = zext i8 %18 to i32
  %20 = sub nsw i32 %19, %16
  %21 = mul nsw i32 %20, %6
  %22 = add nsw i32 %21, 8
  %23 = lshr i32 %22, 4
  %24 = add nuw nsw i32 %13, 1
  %25 = add nuw nsw i32 %24, %16
  %26 = add nuw nsw i32 %25, %23
  %27 = lshr i32 %26, 1
  %28 = trunc i32 %27 to i8
  store i8 %28, ptr %11, align 1, !tbaa !8
  %indvars.iv.next = add nuw nsw i64 %indvars.iv, 1
  %exitcond.not = icmp eq i64 %indvars.iv.next, %wide.trip.count
  br i1 %exitcond.not, label %29, label %10, !llvm.loop !191

29:                                               ; preds = %10
  %30 = getelementptr inbounds i8, ptr %.035.i, i64 %1
  %31 = getelementptr inbounds i8, ptr %.034.i, i64 %3
  %32 = add nsw i32 %.036.i, -1
  %.not.i = icmp eq i32 %32, 0
  br i1 %.not.i, label %do_bilin_1d_c.exit, label %8, !llvm.loop !192

do_bilin_1d_c.exit:                               ; preds = %29
  ret void
}